target datalayout = "e-m:e-p270:32:32-p271:32:32-p272:64:64-i64:64-i128:128-f80:128-n8:16:32:64-S128"
target triple = "x86_64-pc-linux-gnu"

%struct.jpeg_decompress_struct = type { ptr, ptr, ptr, ptr, i32, i32, ptr, i32, i32, i32, i32, i32, i32, i32, double, i32, i32, i32, i32, i32, i32, i32, i32, i32, i32, i32, i32, i32, i32, i32, i32, i32, i32, ptr, i32, i32, i32, i32, i32, ptr, [4 x ptr], [4 x ptr], [4 x ptr], i32, ptr, i32, i32, [16 x i8], [16 x i8], [16 x i8], i32, i32, i8, i8, i8, i16, i16, i32, i8, i32, ptr, i32, i32, i32, i32, ptr, i32, [4 x ptr], i32, i32, i32, [10 x i32], i32, i32, i32, i32, i32, ptr, ptr, ptr, ptr, ptr, ptr, ptr, ptr, ptr, ptr, ptr }
%struct.ppm_dest_struct = type { %struct.djpeg_dest_struct, ptr, ptr, i64, i32 }
%struct.djpeg_dest_struct = type { ptr, ptr, ptr, ptr, ptr, ptr, ptr, ptr, i32 }

; Function Attrs: nounwind uwtable
define internal void @calc_buffer_dimensions_ppm(ptr noundef %0, ptr noundef %1) #0 {
  %3 = alloca ptr, align 8
  %4 = alloca ptr, align 8
  %5 = alloca ptr, align 8
  store ptr %0, ptr %3, align 8, !tbaa !4
  store ptr %1, ptr %4, align 8, !tbaa !61
  call void @llvm.lifetime.start.p0(i64 8, ptr %5) #6
  %6 = load ptr, ptr %4, align 8, !tbaa !61
  store ptr %6, ptr %5, align 8, !tbaa !42
  %7 = load ptr, ptr %3, align 8, !tbaa !4
  %8 = getelementptr inbounds nuw %struct.jpeg_decompress_struct, ptr %7, i32 0, i32 11
  %9 = load i32, ptr %8, align 8, !tbaa !53
  %10 = icmp eq i32 %9, 1
  br i1 %10, label %11, label %21

11:                                               ; preds = %2
  %12 = load ptr, ptr %3, align 8, !tbaa !4
  %13 = getelementptr inbounds nuw %struct.jpeg_decompress_struct, ptr %12, i32 0, i32 27
  %14 = load i32, ptr %13, align 8, !tbaa !55
  %15 = load ptr, ptr %3, align 8, !tbaa !4
  %16 = getelementptr inbounds nuw %struct.jpeg_decompress_struct, ptr %15, i32 0, i32 29
  %17 = load i32, ptr %16, align 8, !tbaa !66
  %18 = mul i32 %14, %17
  %19 = load ptr, ptr %5, align 8, !tbaa !42
  %20 = getelementptr inbounds nuw %struct.ppm_dest_struct, ptr %19, i32 0, i32 4
  store i32 %18, ptr %20, align 8, !tbaa !67
  br label %28

21:                                               ; preds = %2
  %22 = load ptr, ptr %3, align 8, !tbaa !4
  %23 = getelementptr inbounds nuw %struct.jpeg_decompress_struct, ptr %22, i32 0, i32 27
  %24 = load i32, ptr %23, align 8, !tbaa !55
  %25 = mul i32 %24, 3
  %26 = load ptr, ptr %5, align 8, !tbaa !42
  %27 = getelementptr inbounds nuw %struct.ppm_dest_struct, ptr %26, i32 0, i32 4
  store i32 %25, ptr %27, align 8, !tbaa !67
  br label %28

28:                                               ; preds = %21, %11
  %29 = load ptr, ptr %5, align 8, !tbaa !42
  %30 = getelementptr inbounds nuw %struct.ppm_dest_struct, ptr %29, i32 0, i32 4
  %31 = load i32, ptr %30, align 8, !tbaa !67
  %32 = zext i32 %31 to i64
  %33 = mul i64 %32, 1
  %34 = load ptr, ptr %5, align 8, !tbaa !42
  %35 = getelementptr inbounds nuw %struct.ppm_dest_struct, ptr %34, i32 0, i32 3
  store i64 %33, ptr %35, align 8, !tbaa !50
  call void @llvm.lifetime.end.p0(i64 8, ptr %5) #6
  ret void
}