; Function Attrs: mustprogress nofree norecurse nosync nounwind willreturn memory(argmem: readwrite) uwtable
define internal void @calc_buffer_dimensions_ppm(ptr noundef readonly captures(none) %0, ptr noundef writeonly captures(none) initializes((88, 100)) %1) #1 {
  %3 = getelementptr inbounds nuw i8, ptr %0, i64 64
  %4 = load i32, ptr %3, align 8, !tbaa !50
  %5 = icmp eq i32 %4, 1
  %6 = getelementptr inbounds nuw i8, ptr %0, i64 136
  %7 = load i32, ptr %6, align 8, !tbaa !52
  br i1 %5, label %8, label %12

8:                                                ; preds = %2
  %9 = getelementptr inbounds nuw i8, ptr %0, i64 144
  %10 = load i32, ptr %9, align 8, !tbaa !61
  %11 = mul i32 %10, %7
  br label %14

12:                                               ; preds = %2
  %13 = mul i32 %7, 3
  br label %14

14:                                               ; preds = %12, %8
  %.sink = phi i32 [ %11, %8 ], [ %13, %12 ]
  %15 = getelementptr inbounds nuw i8, ptr %1, i64 96
  store i32 %.sink, ptr %15, align 8, !tbaa !62
  %16 = zext i32 %.sink to i64
  %17 = getelementptr inbounds nuw i8, ptr %1, i64 88
  store i64 %16, ptr %17, align 8, !tbaa !47
  ret void
}